; Function Attrs: mustprogress uwtable
define internal fastcc noundef i32 @_ZL19llama_byte_to_tokenRK11llama_vocabh(ptr noundef nonnull align 8 dereferenceable(240) %vocab, i8 noundef zeroext %ch) unnamed_addr #2 personality ptr @__gxx_personality_v0 {
entry:
  %buf = alloca [7 x i8], align 1
  %ref.tmp = alloca %"class.std::__cxx11::basic_string", align 8
  %ref.tmp9 = alloca %"class.std::allocator.6", align 1
  %ref.tmp15 = alloca %"class.std::__cxx11::basic_string", align 8
  %vocab.val = load i32, ptr %vocab, align 8
  switch i32 %vocab.val, label %do.body [
    i32 0, label %sw.bb
    i32 1, label %sw.bb13
  ]

sw.bb:                                            ; preds = %entry
  store i8 60, ptr %buf, align 1
  %arrayinit.element = getelementptr inbounds i8, ptr %buf, i64 1
  store i8 48, ptr %arrayinit.element, align 1
  %arrayinit.element1 = getelementptr inbounds i8, ptr %buf, i64 2
  store i8 120, ptr %arrayinit.element1, align 1
  %arrayinit.element2 = getelementptr inbounds i8, ptr %buf, i64 3
  %conv = zext i8 %ch to i32
  %shr = lshr i32 %conv, 4
  %idxprom = zext nneg i32 %shr to i64
  %arrayidx = getelementptr inbounds i8, ptr @.str.320, i64 %idxprom
  %0 = load i8, ptr %arrayidx, align 1
  store i8 %0, ptr %arrayinit.element2, align 1
  %arrayinit.element3 = getelementptr inbounds i8, ptr %buf, i64 4
  %and = and i32 %conv, 15
  %idxprom5 = zext nneg i32 %and to i64
  %arrayidx6 = getelementptr inbounds i8, ptr @.str.320, i64 %idxprom5
  %1 = load i8, ptr %arrayidx6, align 1
  store i8 %1, ptr %arrayinit.element3, align 1
  %arrayinit.element7 = getelementptr inbounds i8, ptr %buf, i64 5
  store i8 62, ptr %arrayinit.element7, align 1
  %arrayinit.element8 = getelementptr inbounds i8, ptr %buf, i64 6
  store i8 0, ptr %arrayinit.element8, align 1
  call void @_ZNSaIcEC1Ev(ptr noundef nonnull align 1 dereferenceable(1) %ref.tmp9) #44
  invoke void @_ZNSt7__cxx1112basic_stringIcSt11char_traitsIcESaIcEEC1EPKcRKS3_(ptr noundef nonnull align 8 dereferenceable(32) %ref.tmp, ptr noundef nonnull %buf, ptr noundef nonnull align 1 dereferenceable(1) %ref.tmp9)
          to label %invoke.cont unwind label %lpad

invoke.cont:                                      ; preds = %sw.bb
  %token_to_id = getelementptr inbounds i8, ptr %vocab, i64 8
  %call.i.i8 = invoke ptr @_ZNKSt10_HashtableINSt7__cxx1112basic_stringIcSt11char_traitsIcESaIcEEESt4pairIKS5_iESaIS8_ENSt8__detail10_Select1stESt8equal_toIS5_ESt4hashIS5_ENSA_18_Mod_range_hashingENSA_20_Default_ranged_hashENSA_20_Prime_rehash_policyENSA_17_Hashtable_traitsILb1ELb0ELb1EEEE4findERS7_(ptr noundef nonnull align 8 dereferenceable(56) %token_to_id, ptr noundef nonnull align 8 dereferenceable(32) %ref.tmp)
          to label %call.i.i.noexc unwind label %lpad10

call.i.i.noexc:                                   ; preds = %invoke.cont
  %tobool.not.i.i = icmp eq ptr %call.i.i8, null
  br i1 %tobool.not.i.i, label %if.then.i.i, label %invoke.cont11

if.then.i.i:                                      ; preds = %call.i.i.noexc
  invoke void @_ZSt20__throw_out_of_rangePKc(ptr noundef nonnull @.str.321) #47
          to label %.noexc unwind label %lpad10

.noexc:                                           ; preds = %if.then.i.i
  unreachable

invoke.cont11:                                    ; preds = %call.i.i.noexc
  %second.i.i = getelementptr inbounds i8, ptr %call.i.i8, i64 40
  %2 = load i32, ptr %second.i.i, align 4
  call void @_ZNSt7__cxx1112basic_stringIcSt11char_traitsIcESaIcEED1Ev(ptr noundef nonnull align 8 dereferenceable(32) %ref.tmp) #44
  call void @_ZNSaIcED1Ev(ptr noundef nonnull align 1 dereferenceable(1) %ref.tmp9) #44
  br label %return

lpad:                                             ; preds = %sw.bb
  %3 = landingpad { ptr, i32 }
          cleanup
  br label %ehcleanup

lpad10:                                           ; preds = %if.then.i.i, %invoke.cont
  %4 = landingpad { ptr, i32 }
          cleanup
  call void @_ZNSt7__cxx1112basic_stringIcSt11char_traitsIcESaIcEED1Ev(ptr noundef nonnull align 8 dereferenceable(32) %ref.tmp) #44
  br label %ehcleanup

ehcleanup:                                        ; preds = %lpad10, %lpad
  %.pn = phi { ptr, i32 } [ %4, %lpad10 ], [ %3, %lpad ]
  call void @_ZNSaIcED1Ev(ptr noundef nonnull align 1 dereferenceable(1) %ref.tmp9) #44
  br label %eh.resume

sw.bb13:                                          ; preds = %entry
  %token_to_id14 = getelementptr inbounds i8, ptr %vocab, i64 8
  call fastcc void @_ZL20bytes_to_unicode_bpeB5cxx11h(ptr noalias nonnull align 8 %ref.tmp15, i8 noundef zeroext %ch)
  %call.i.i13 = invoke ptr @_ZNKSt10_HashtableINSt7__cxx1112basic_stringIcSt11char_traitsIcESaIcEEESt4pairIKS5_iESaIS8_ENSt8__detail10_Select1stESt8equal_toIS5_ESt4hashIS5_ENSA_18_Mod_range_hashingENSA_20_Default_ranged_hashENSA_20_Prime_rehash_policyENSA_17_Hashtable_traitsILb1ELb0ELb1EEEE4findERS7_(ptr noundef nonnull align 8 dereferenceable(56) %token_to_id14, ptr noundef nonnull align 8 dereferenceable(32) %ref.tmp15)
          to label %call.i.i.noexc12 unwind label %lpad16

call.i.i.noexc12:                                 ; preds = %sw.bb13
  %tobool.not.i.i9 = icmp eq ptr %call.i.i13, null
  br i1 %tobool.not.i.i9, label %if.then.i.i11, label %invoke.cont17

if.then.i.i11:                                    ; preds = %call.i.i.noexc12
  invoke void @_ZSt20__throw_out_of_rangePKc(ptr noundef nonnull @.str.321) #47
          to label %.noexc14 unwind label %lpad16

.noexc14:                                         ; preds = %if.then.i.i11
  unreachable

invoke.cont17:                                    ; preds = %call.i.i.noexc12
  %second.i.i10 = getelementptr inbounds i8, ptr %call.i.i13, i64 40
  %5 = load i32, ptr %second.i.i10, align 4
  call void @_ZNSt7__cxx1112basic_stringIcSt11char_traitsIcESaIcEED1Ev(ptr noundef nonnull align 8 dereferenceable(32) %ref.tmp15) #44
  br label %return

lpad16:                                           ; preds = %if.then.i.i11, %sw.bb13
  %6 = landingpad { ptr, i32 }
          cleanup
  call void @_ZNSt7__cxx1112basic_stringIcSt11char_traitsIcESaIcEED1Ev(ptr noundef nonnull align 8 dereferenceable(32) %ref.tmp15) #44
  br label %eh.resume

do.body:                                          ; preds = %entry
  %7 = load ptr, ptr @stdout, align 8
  %call20 = tail call i32 @fflush(ptr noundef %7)
  %8 = load ptr, ptr @stderr, align 8
  %call21 = tail call i32 (ptr, ptr, ...) @fprintf(ptr noundef %8, ptr noundef nonnull @.str.171, ptr noundef nonnull @.str.172, i32 noundef 6275, ptr noundef nonnull @.str.177) #48
  tail call void @ggml_print_backtrace()
  tail call void @abort() #45
  unreachable

return:                                           ; preds = %invoke.cont17, %invoke.cont11
  %retval.0 = phi i32 [ %5, %invoke.cont17 ], [ %2, %invoke.cont11 ]
  ret i32 %retval.0

eh.resume:                                        ; preds = %lpad16, %ehcleanup
  %.pn6 = phi { ptr, i32 } [ %6, %lpad16 ], [ %.pn, %ehcleanup ]
  resume { ptr, i32 } %.pn6
}